(dp1
cnumpy.core.multiarray
scalar
p2
(cnumpy
dtype
p3
(S'S23'
I0
I1
tRp4
(I3
S'|'
NNNI23
I1
I0
tbS'12582_DISCHARGE_SUMMARY'
tRp5
I1
sg2
(g3
(S'S17'
I0
I1
tRp6
(I3
S'|'
NNNI17
I1
I0
tbS'93578_ECHO_REPORT'
tRp7
I1
sg2
(g3
(S'S23'
I0
I1
tRp8
(I3
S'|'
NNNI23
I1
I0
tbS'18321_DISCHARGE_SUMMARY'
tRp9
I1
sg2
(g3
(S'S17'
I0
I1
tRp10
(I3
S'|'
NNNI17
I1
I0
tbS'25844_ECHO_REPORT'
tRp11
I1
sg2
(g3
(S'S22'
I0
I1
tRp12
(I3
S'|'
NNNI22
I1
I0
tbS'7797_DISCHARGE_SUMMARY'
tRp13
I1
sg2
(g3
(S'S23'
I0
I1
tRp14
(I3
S'|'
NNNI23
I1
I0
tbS'20442_DISCHARGE_SUMMARY'
tRp15
I1
sg2
(g3
(S'S15'
I0
I1
tRp16
(I3
S'|'
NNNI15
I1
I0
tbS'7786_ECG_REPORT'
tRp17
I1
sg2
(g3
(S'S22'
I0
I1
tRp18
(I3
S'|'
NNNI22
I1
I0
tbS'22264_RADIOLOGY_REPORT'
tRp19
I1
sg2
(g3
(S'S15'
I0
I1
tRp20
(I3
S'|'
NNNI15
I1
I0
tbS'6653_ECG_REPORT'
tRp21
I1
sg2
(g3
(S'S22'
I0
I1
tRp22
(I3
S'|'
NNNI22
I1
I0
tbS'2652_DISCHARGE_SUMMARY'
tRp23
I1
sg2
(g3
(S'S22'
I0
I1
tRp24
(I3
S'|'
NNNI22
I1
I0
tbS'5382_DISCHARGE_SUMMARY'
tRp25
I1
sg2
(g3
(S'S15'
I0
I1
tRp26
(I3
S'|'
NNNI15
I1
I0
tbS'8380_ECG_REPORT'
tRp27
I1
sg2
(g3
(S'S22'
I0
I1
tRp28
(I3
S'|'
NNNI22
I1
I0
tbS'2115_DISCHARGE_SUMMARY'
tRp29
I1
sg2
(g3
(S'S23'
I0
I1
tRp30
(I3
S'|'
NNNI23
I1
I0
tbS'12618_DISCHARGE_SUMMARY'
tRp31
I1
sg2
(g3
(S'S21'
I0
I1
tRp32
(I3
S'|'
NNNI21
I1
I0
tbS'7048_RADIOLOGY_REPORT'
tRp33
I1
sg2
(g3
(S'S22'
I0
I1
tRp34
(I3
S'|'
NNNI22
I1
I0
tbS'9248_DISCHARGE_SUMMARY'
tRp35
I1
sg2
(g3
(S'S22'
I0
I1
tRp36
(I3
S'|'
NNNI22
I1
I0
tbS'23298_RADIOLOGY_REPORT'
tRp37
I1
sg2
(g3
(S'S15'
I0
I1
tRp38
(I3
S'|'
NNNI15
I1
I0
tbS'176_ECHO_REPORT'
tRp39
I1
sg2
(g3
(S'S23'
I0
I1
tRp40
(I3
S'|'
NNNI23
I1
I0
tbS'21633_DISCHARGE_SUMMARY'
tRp41
I1
sg2
(g3
(S'S22'
I0
I1
tRp42
(I3
S'|'
NNNI22
I1
I0
tbS'7214_DISCHARGE_SUMMARY'
tRp43
I1
sg2
(g3
(S'S21'
I0
I1
tRp44
(I3
S'|'
NNNI21
I1
I0
tbS'5062_RADIOLOGY_REPORT'
tRp45
I1
sg2
(g3
(S'S16'
I0
I1
tRp46
(I3
S'|'
NNNI16
I1
I0
tbS'10906_ECG_REPORT'
tRp47
I1
sg2
(g3
(S'S17'
I0
I1
tRp48
(I3
S'|'
NNNI17
I1
I0
tbS'18908_ECHO_REPORT'
tRp49
I1
sg2
(g3
(S'S22'
I0
I1
tRp50
(I3
S'|'
NNNI22
I1
I0
tbS'21280_RADIOLOGY_REPORT'
tRp51
I1
sg2
(g3
(S'S16'
I0
I1
tRp52
(I3
S'|'
NNNI16
I1
I0
tbS'22891_ECG_REPORT'
tRp53
I1
sg2
(g3
(S'S23'
I0
I1
tRp54
(I3
S'|'
NNNI23
I1
I0
tbS'15751_DISCHARGE_SUMMARY'
tRp55
I1
sg2
(g3
(S'S23'
I0
I1
tRp56
(I3
S'|'
NNNI23
I1
I0
tbS'16677_DISCHARGE_SUMMARY'
tRp57
I1
sg2
(g3
(S'S22'
I0
I1
tRp58
(I3
S'|'
NNNI22
I1
I0
tbS'5065_DISCHARGE_SUMMARY'
tRp59
I1
sg2
(g3
(S'S21'
I0
I1
tRp60
(I3
S'|'
NNNI21
I1
I0
tbS'7780_RADIOLOGY_REPORT'
tRp61
I1
sg2
(g3
(S'S17'
I0
I1
tRp62
(I3
S'|'
NNNI17
I1
I0
tbS'11378_ECHO_REPORT'
tRp63
I1
sg2
(g3
(S'S23'
I0
I1
tRp64
(I3
S'|'
NNNI23
I1
I0
tbS'24307_DISCHARGE_SUMMARY'
tRp65
I1
sg2
(g3
(S'S16'
I0
I1
tRp66
(I3
S'|'
NNNI16
I1
I0
tbS'17589_ECG_REPORT'
tRp67
I1
sg2
(g3
(S'S16'
I0
I1
tRp68
(I3
S'|'
NNNI16
I1
I0
tbS'21349_ECG_REPORT'
tRp69
I1
sg2
(g3
(S'S22'
I0
I1
tRp70
(I3
S'|'
NNNI22
I1
I0
tbS'8703_DISCHARGE_SUMMARY'
tRp71
I1
sg2
(g3
(S'S22'
I0
I1
tRp72
(I3
S'|'
NNNI22
I1
I0
tbS'14835_RADIOLOGY_REPORT'
tRp73
I1
sg2
(g3
(S'S22'
I0
I1
tRp74
(I3
S'|'
NNNI22
I1
I0
tbS'16072_RADIOLOGY_REPORT'
tRp75
I1
sg2
(g3
(S'S15'
I0
I1
tRp76
(I3
S'|'
NNNI15
I1
I0
tbS'6296_ECG_REPORT'
tRp77
I1
sg2
(g3
(S'S17'
I0
I1
tRp78
(I3
S'|'
NNNI17
I1
I0
tbS'18318_ECHO_REPORT'
tRp79
I1
sg2
(g3
(S'S21'
I0
I1
tRp80
(I3
S'|'
NNNI21
I1
I0
tbS'9166_RADIOLOGY_REPORT'
tRp81
I1
sg2
(g3
(S'S22'
I0
I1
tRp82
(I3
S'|'
NNNI22
I1
I0
tbS'9001_DISCHARGE_SUMMARY'
tRp83
I1
sg2
(g3
(S'S16'
I0
I1
tRp84
(I3
S'|'
NNNI16
I1
I0
tbS'19012_ECG_REPORT'
tRp85
I1
sg2
(g3
(S'S22'
I0
I1
tRp86
(I3
S'|'
NNNI22
I1
I0
tbS'24813_RADIOLOGY_REPORT'
tRp87
I1
sg2
(g3
(S'S22'
I0
I1
tRp88
(I3
S'|'
NNNI22
I1
I0
tbS'4882_DISCHARGE_SUMMARY'
tRp89
I1
sg2
(g3
(S'S23'
I0
I1
tRp90
(I3
S'|'
NNNI23
I1
I0
tbS'24432_DISCHARGE_SUMMARY'
tRp91
I1
sg2
(g3
(S'S23'
I0
I1
tRp92
(I3
S'|'
NNNI23
I1
I0
tbS'17217_DISCHARGE_SUMMARY'
tRp93
I1
sg2
(g3
(S'S23'
I0
I1
tRp94
(I3
S'|'
NNNI23
I1
I0
tbS'11681_DISCHARGE_SUMMARY'
tRp95
I1
sg2
(g3
(S'S17'
I0
I1
tRp96
(I3
S'|'
NNNI17
I1
I0
tbS'16516_ECHO_REPORT'
tRp97
I1
sg2
(g3
(S'S16'
I0
I1
tRp98
(I3
S'|'
NNNI16
I1
I0
tbS'14475_ECG_REPORT'
tRp99
I1
sg2
(g3
(S'S16'
I0
I1
tRp100
(I3
S'|'
NNNI16
I1
I0
tbS'3089_ECHO_REPORT'
tRp101
I1
sg2
(g3
(S'S21'
I0
I1
tRp102
(I3
S'|'
NNNI21
I1
I0
tbS'6292_RADIOLOGY_REPORT'
tRp103
I1
sg2
(g3
(S'S22'
I0
I1
tRp104
(I3
S'|'
NNNI22
I1
I0
tbS'20145_RADIOLOGY_REPORT'
tRp105
I1
sg2
(g3
(S'S16'
I0
I1
tRp106
(I3
S'|'
NNNI16
I1
I0
tbS'2916_ECHO_REPORT'
tRp107
I1
sg2
(g3
(S'S23'
I0
I1
tRp108
(I3
S'|'
NNNI23
I1
I0
tbS'22159_DISCHARGE_SUMMARY'
tRp109
I1
sg2
(g3
(S'S15'
I0
I1
tRp110
(I3
S'|'
NNNI15
I1
I0
tbS'9040_ECG_REPORT'
tRp111
I1
sg2
(g3
(S'S16'
I0
I1
tRp112
(I3
S'|'
NNNI16
I1
I0
tbS'9703_ECHO_REPORT'
tRp113
I1
sg2
(g3
(S'S17'
I0
I1
tRp114
(I3
S'|'
NNNI17
I1
I0
tbS'20807_ECHO_REPORT'
tRp115
I1
sg2
(g3
(S'S23'
I0
I1
tRp116
(I3
S'|'
NNNI23
I1
I0
tbS'10101_DISCHARGE_SUMMARY'
tRp117
I1
sg2
(g3
(S'S23'
I0
I1
tRp118
(I3
S'|'
NNNI23
I1
I0
tbS'24786_DISCHARGE_SUMMARY'
tRp119
I1
sg2
(g3
(S'S22'
I0
I1
tRp120
(I3
S'|'
NNNI22
I1
I0
tbS'10422_RADIOLOGY_REPORT'
tRp121
I1
sg2
(g3
(S'S22'
I0
I1
tRp122
(I3
S'|'
NNNI22
I1
I0
tbS'17451_RADIOLOGY_REPORT'
tRp123
I1
sg2
(g3
(S'S17'
I0
I1
tRp124
(I3
S'|'
NNNI17
I1
I0
tbS'21286_ECHO_REPORT'
tRp125
I1
sg2
(g3
(S'S22'
I0
I1
tRp126
(I3
S'|'
NNNI22
I1
I0
tbS'9339_DISCHARGE_SUMMARY'
tRp127
I1
sg2
(g3
(S'S21'
I0
I1
tRp128
(I3
S'|'
NNNI21
I1
I0
tbS'4082_RADIOLOGY_REPORT'
tRp129
I1
sg2
(g3
(S'S17'
I0
I1
tRp130
(I3
S'|'
NNNI17
I1
I0
tbS'13913_ECHO_REPORT'
tRp131
I1
sg2
(g3
(S'S22'
I0
I1
tRp132
(I3
S'|'
NNNI22
I1
I0
tbS'18108_RADIOLOGY_REPORT'
tRp133
I1
sg2
(g3
(S'S22'
I0
I1
tRp134
(I3
S'|'
NNNI22
I1
I0
tbS'1314_DISCHARGE_SUMMARY'
tRp135
I1
sg2
(g3
(S'S16'
I0
I1
tRp136
(I3
S'|'
NNNI16
I1
I0
tbS'23893_ECG_REPORT'
tRp137
I1
sg2
(g3
(S'S22'
I0
I1
tRp138
(I3
S'|'
NNNI22
I1
I0
tbS'22566_RADIOLOGY_REPORT'
tRp139
I1
sg2
(g3
(S'S23'
I0
I1
tRp140
(I3
S'|'
NNNI23
I1
I0
tbS'21312_DISCHARGE_SUMMARY'
tRp141
I1
sg2
(g3
(S'S15'
I0
I1
tRp142
(I3
S'|'
NNNI15
I1
I0
tbS'7452_ECG_REPORT'
tRp143
I1
sg2
(g3
(S'S22'
I0
I1
tRp144
(I3
S'|'
NNNI22
I1
I0
tbS'3087_DISCHARGE_SUMMARY'
tRp145
I1
sg2
(g3
(S'S22'
I0
I1
tRp146
(I3
S'|'
NNNI22
I1
I0
tbS'25003_RADIOLOGY_REPORT'
tRp147
I1
sg2
(g3
(S'S22'
I0
I1
tRp148
(I3
S'|'
NNNI22
I1
I0
tbS'6134_DISCHARGE_SUMMARY'
tRp149
I1
sg2
(g3
(S'S23'
I0
I1
tRp150
(I3
S'|'
NNNI23
I1
I0
tbS'17583_DISCHARGE_SUMMARY'
tRp151
I1
sg2
(g3
(S'S22'
I0
I1
tRp152
(I3
S'|'
NNNI22
I1
I0
tbS'19584_RADIOLOGY_REPORT'
tRp153
I1
sg2
(g3
(S'S23'
I0
I1
tRp154
(I3
S'|'
NNNI23
I1
I0
tbS'20706_DISCHARGE_SUMMARY'
tRp155
I1
sg2
(g3
(S'S16'
I0
I1
tRp156
(I3
S'|'
NNNI16
I1
I0
tbS'10612_ECG_REPORT'
tRp157
I1
sg2
(g3
(S'S15'
I0
I1
tRp158
(I3
S'|'
NNNI15
I1
I0
tbS'7866_ECG_REPORT'
tRp159
I1
sg2
(g3
(S'S22'
I0
I1
tRp160
(I3
S'|'
NNNI22
I1
I0
tbS'20050_RADIOLOGY_REPORT'
tRp161
I1
sg2
(g3
(S'S22'
I0
I1
tRp162
(I3
S'|'
NNNI22
I1
I0
tbS'2410_DISCHARGE_SUMMARY'
tRp163
I1
sg2
(g3
(S'S22'
I0
I1
tRp164
(I3
S'|'
NNNI22
I1
I0
tbS'1163_DISCHARGE_SUMMARY'
tRp165
I1
sg2
(g3
(S'S16'
I0
I1
tRp166
(I3
S'|'
NNNI16
I1
I0
tbS'22682_ECG_REPORT'
tRp167
I1
sg2
(g3
(S'S15'
I0
I1
tRp168
(I3
S'|'
NNNI15
I1
I0
tbS'8870_ECG_REPORT'
tRp169
I1
sg2
(g3
(S'S16'
I0
I1
tRp170
(I3
S'|'
NNNI16
I1
I0
tbS'19246_ECG_REPORT'
tRp171
I1
sg2
(g3
(S'S23'
I0
I1
tRp172
(I3
S'|'
NNNI23
I1
I0
tbS'17522_DISCHARGE_SUMMARY'
tRp173
I1
sg2
(g3
(S'S22'
I0
I1
tRp174
(I3
S'|'
NNNI22
I1
I0
tbS'10668_RADIOLOGY_REPORT'
tRp175
I1
sg2
(g3
(S'S22'
I0
I1
tRp176
(I3
S'|'
NNNI22
I1
I0
tbS'16660_RADIOLOGY_REPORT'
tRp177
I1
sg2
(g3
(S'S23'
I0
I1
tRp178
(I3
S'|'
NNNI23
I1
I0
tbS'16247_DISCHARGE_SUMMARY'
tRp179
I1
sg2
(g3
(S'S23'
I0
I1
tRp180
(I3
S'|'
NNNI23
I1
I0
tbS'10773_DISCHARGE_SUMMARY'
tRp181
I1
sg2
(g3
(S'S23'
I0
I1
tRp182
(I3
S'|'
NNNI23
I1
I0
tbS'16888_DISCHARGE_SUMMARY'
tRp183
I1
sg2
(g3
(S'S23'
I0
I1
tRp184
(I3
S'|'
NNNI23
I1
I0
tbS'25150_DISCHARGE_SUMMARY'
tRp185
I1
sg2
(g3
(S'S15'
I0
I1
tRp186
(I3
S'|'
NNNI15
I1
I0
tbS'7761_ECG_REPORT'
tRp187
I1
sg2
(g3
(S'S23'
I0
I1
tRp188
(I3
S'|'
NNNI23
I1
I0
tbS'16660_DISCHARGE_SUMMARY'
tRp189
I1
sg2
(g3
(S'S15'
I0
I1
tRp190
(I3
S'|'
NNNI15
I1
I0
tbS'7968_ECG_REPORT'
tRp191
I1
sg2
(g3
(S'S23'
I0
I1
tRp192
(I3
S'|'
NNNI23
I1
I0
tbS'21979_DISCHARGE_SUMMARY'
tRp193
I1
sg2
(g3
(S'S23'
I0
I1
tRp194
(I3
S'|'
NNNI23
I1
I0
tbS'10539_DISCHARGE_SUMMARY'
tRp195
I1
sg2
(g3
(S'S16'
I0
I1
tRp196
(I3
S'|'
NNNI16
I1
I0
tbS'5367_ECHO_REPORT'
tRp197
I1
sg2
(g3
(S'S16'
I0
I1
tRp198
(I3
S'|'
NNNI16
I1
I0
tbS'1754_ECHO_REPORT'
tRp199
I1
sg2
(g3
(S'S21'
I0
I1
tRp200
(I3
S'|'
NNNI21
I1
I0
tbS'9963_RADIOLOGY_REPORT'
tRp201
I1
sg2
(g3
(S'S15'
I0
I1
tRp202
(I3
S'|'
NNNI15
I1
I0
tbS'5955_ECG_REPORT'
tRp203
I1
sg2
(g3
(S'S21'
I0
I1
tRp204
(I3
S'|'
NNNI21
I1
I0
tbS'534_DISCHARGE_SUMMARY'
tRp205
I1
sg2
(g3
(S'S17'
I0
I1
tRp206
(I3
S'|'
NNNI17
I1
I0
tbS'10907_ECHO_REPORT'
tRp207
I1
sg2
(g3
(S'S17'
I0
I1
tRp208
(I3
S'|'
NNNI17
I1
I0
tbS'21662_ECHO_REPORT'
tRp209
I1
sg2
(g3
(S'S21'
I0
I1
tRp210
(I3
S'|'
NNNI21
I1
I0
tbS'7978_RADIOLOGY_REPORT'
tRp211
I1
sg2
(g3
(S'S16'
I0
I1
tRp212
(I3
S'|'
NNNI16
I1
I0
tbS'18912_ECG_REPORT'
tRp213
I1
sg2
(g3
(S'S22'
I0
I1
tRp214
(I3
S'|'
NNNI22
I1
I0
tbS'2740_DISCHARGE_SUMMARY'
tRp215
I1
sg2
(g3
(S'S22'
I0
I1
tRp216
(I3
S'|'
NNNI22
I1
I0
tbS'21951_RADIOLOGY_REPORT'
tRp217
I1
sg2
(g3
(S'S17'
I0
I1
tRp218
(I3
S'|'
NNNI17
I1
I0
tbS'21115_ECHO_REPORT'
tRp219
I1
sg2
(g3
(S'S23'
I0
I1
tRp220
(I3
S'|'
NNNI23
I1
I0
tbS'22739_DISCHARGE_SUMMARY'
tRp221
I1
sg2
(g3
(S'S16'
I0
I1
tRp222
(I3
S'|'
NNNI16
I1
I0
tbS'12152_ECG_REPORT'
tRp223
I1
sg2
(g3
(S'S16'
I0
I1
tRp224
(I3
S'|'
NNNI16
I1
I0
tbS'7156_ECHO_REPORT'
tRp225
I1
sg2
(g3
(S'S16'
I0
I1
tRp226
(I3
S'|'
NNNI16
I1
I0
tbS'25585_ECG_REPORT'
tRp227
I1
sg2
(g3
(S'S22'
I0
I1
tRp228
(I3
S'|'
NNNI22
I1
I0
tbS'4303_DISCHARGE_SUMMARY'
tRp229
I1
sg2
(g3
(S'S23'
I0
I1
tRp230
(I3
S'|'
NNNI23
I1
I0
tbS'21413_DISCHARGE_SUMMARY'
tRp231
I1
sg2
(g3
(S'S16'
I0
I1
tRp232
(I3
S'|'
NNNI16
I1
I0
tbS'20400_ECG_REPORT'
tRp233
I1
sg2
(g3
(S'S23'
I0
I1
tRp234
(I3
S'|'
NNNI23
I1
I0
tbS'15789_DISCHARGE_SUMMARY'
tRp235
I1
sg2
(g3
(S'S23'
I0
I1
tRp236
(I3
S'|'
NNNI23
I1
I0
tbS'10644_DISCHARGE_SUMMARY'
tRp237
I1
sg2
(g3
(S'S17'
I0
I1
tRp238
(I3
S'|'
NNNI17
I1
I0
tbS'24638_ECHO_REPORT'
tRp239
I1
sg2
(g3
(S'S22'
I0
I1
tRp240
(I3
S'|'
NNNI22
I1
I0
tbS'19154_RADIOLOGY_REPORT'
tRp241
I1
sg2
(g3
(S'S23'
I0
I1
tRp242
(I3
S'|'
NNNI23
I1
I0
tbS'20389_DISCHARGE_SUMMARY'
tRp243
I1
sg2
(g3
(S'S16'
I0
I1
tRp244
(I3
S'|'
NNNI16
I1
I0
tbS'12156_ECG_REPORT'
tRp245
I1
sg2
(g3
(S'S17'
I0
I1
tRp246
(I3
S'|'
NNNI17
I1
I0
tbS'17582_ECHO_REPORT'
tRp247
I1
sg2
(g3
(S'S16'
I0
I1
tRp248
(I3
S'|'
NNNI16
I1
I0
tbS'14158_ECG_REPORT'
tRp249
I1
sg2
(g3
(S'S23'
I0
I1
tRp250
(I3
S'|'
NNNI23
I1
I0
tbS'22788_DISCHARGE_SUMMARY'
tRp251
I1
sg2
(g3
(S'S23'
I0
I1
tRp252
(I3
S'|'
NNNI23
I1
I0
tbS'20701_DISCHARGE_SUMMARY'
tRp253
I1
sg2
(g3
(S'S22'
I0
I1
tRp254
(I3
S'|'
NNNI22
I1
I0
tbS'4269_DISCHARGE_SUMMARY'
tRp255
I1
sg2
(g3
(S'S22'
I0
I1
tRp256
(I3
S'|'
NNNI22
I1
I0
tbS'9337_DISCHARGE_SUMMARY'
tRp257
I1
sg2
(g3
(S'S16'
I0
I1
tRp258
(I3
S'|'
NNNI16
I1
I0
tbS'13101_ECG_REPORT'
tRp259
I1
sg2
(g3
(S'S23'
I0
I1
tRp260
(I3
S'|'
NNNI23
I1
I0
tbS'16013_DISCHARGE_SUMMARY'
tRp261
I1
sg2
(g3
(S'S21'
I0
I1
tRp262
(I3
S'|'
NNNI21
I1
I0
tbS'6091_RADIOLOGY_REPORT'
tRp263
I1
sg2
(g3
(S'S17'
I0
I1
tRp264
(I3
S'|'
NNNI17
I1
I0
tbS'14419_ECHO_REPORT'
tRp265
I1
sg2
(g3
(S'S16'
I0
I1
tRp266
(I3
S'|'
NNNI16
I1
I0
tbS'22818_ECG_REPORT'
tRp267
I1
sg2
(g3
(S'S17'
I0
I1
tRp268
(I3
S'|'
NNNI17
I1
I0
tbS'14972_ECHO_REPORT'
tRp269
I1
sg2
(g3
(S'S17'
I0
I1
tRp270
(I3
S'|'
NNNI17
I1
I0
tbS'26136_ECHO_REPORT'
tRp271
I1
sg2
(g3
(S'S22'
I0
I1
tRp272
(I3
S'|'
NNNI22
I1
I0
tbS'4525_DISCHARGE_SUMMARY'
tRp273
I1
sg2
(g3
(S'S16'
I0
I1
tRp274
(I3
S'|'
NNNI16
I1
I0
tbS'8014_ECHO_REPORT'
tRp275
I1
sg2
(g3
(S'S22'
I0
I1
tRp276
(I3
S'|'
NNNI22
I1
I0
tbS'16134_RADIOLOGY_REPORT'
tRp277
I1
sg2
(g3
(S'S17'
I0
I1
tRp278
(I3
S'|'
NNNI17
I1
I0
tbS'14522_ECHO_REPORT'
tRp279
I1
sg2
(g3
(S'S16'
I0
I1
tRp280
(I3
S'|'
NNNI16
I1
I0
tbS'16333_ECG_REPORT'
tRp281
I1
sg2
(g3
(S'S23'
I0
I1
tRp282
(I3
S'|'
NNNI23
I1
I0
tbS'19791_DISCHARGE_SUMMARY'
tRp283
I1
sg2
(g3
(S'S23'
I0
I1
tRp284
(I3
S'|'
NNNI23
I1
I0
tbS'25775_DISCHARGE_SUMMARY'
tRp285
I1
sg2
(g3
(S'S17'
I0
I1
tRp286
(I3
S'|'
NNNI17
I1
I0
tbS'10588_ECHO_REPORT'
tRp287
I1
sg2
(g3
(S'S21'
I0
I1
tRp288
(I3
S'|'
NNNI21
I1
I0
tbS'8216_RADIOLOGY_REPORT'
tRp289
I1
sg2
(g3
(S'S23'
I0
I1
tRp290
(I3
S'|'
NNNI23
I1
I0
tbS'22743_DISCHARGE_SUMMARY'
tRp291
I1
sg2
(g3
(S'S23'
I0
I1
tRp292
(I3
S'|'
NNNI23
I1
I0
tbS'15021_DISCHARGE_SUMMARY'
tRp293
I1
sg2
(g3
(S'S23'
I0
I1
tRp294
(I3
S'|'
NNNI23
I1
I0
tbS'15128_DISCHARGE_SUMMARY'
tRp295
I1
sg2
(g3
(S'S15'
I0
I1
tRp296
(I3
S'|'
NNNI15
I1
I0
tbS'500_ECHO_REPORT'
tRp297
I1
sg2
(g3
(S'S22'
I0
I1
tRp298
(I3
S'|'
NNNI22
I1
I0
tbS'15295_RADIOLOGY_REPORT'
tRp299
I1
sg2
(g3
(S'S22'
I0
I1
tRp300
(I3
S'|'
NNNI22
I1
I0
tbS'18114_RADIOLOGY_REPORT'
tRp301
I1
sg2
(g3
(S'S23'
I0
I1
tRp302
(I3
S'|'
NNNI23
I1
I0
tbS'21745_DISCHARGE_SUMMARY'
tRp303
I1
sg2
(g3
(S'S23'
I0
I1
tRp304
(I3
S'|'
NNNI23
I1
I0
tbS'16093_DISCHARGE_SUMMARY'
tRp305
I1
sg2
(g3
(S'S21'
I0
I1
tRp306
(I3
S'|'
NNNI21
I1
I0
tbS'7700_RADIOLOGY_REPORT'
tRp307
I1
sg2
(g3
(S'S22'
I0
I1
tRp308
(I3
S'|'
NNNI22
I1
I0
tbS'7726_DISCHARGE_SUMMARY'
tRp309
I1
sg2
(g3
(S'S23'
I0
I1
tRp310
(I3
S'|'
NNNI23
I1
I0
tbS'19709_DISCHARGE_SUMMARY'
tRp311
I1
sg2
(g3
(S'S16'
I0
I1
tRp312
(I3
S'|'
NNNI16
I1
I0
tbS'19623_ECG_REPORT'
tRp313
I1
sg2
(g3
(S'S22'
I0
I1
tRp314
(I3
S'|'
NNNI22
I1
I0
tbS'21215_RADIOLOGY_REPORT'
tRp315
I1
sg2
(g3
(S'S23'
I0
I1
tRp316
(I3
S'|'
NNNI23
I1
I0
tbS'19778_DISCHARGE_SUMMARY'
tRp317
I1
sg2
(g3
(S'S23'
I0
I1
tRp318
(I3
S'|'
NNNI23
I1
I0
tbS'19649_DISCHARGE_SUMMARY'
tRp319
I1
sg2
(g3
(S'S23'
I0
I1
tRp320
(I3
S'|'
NNNI23
I1
I0
tbS'11762_DISCHARGE_SUMMARY'
tRp321
I1
sg2
(g3
(S'S15'
I0
I1
tRp322
(I3
S'|'
NNNI15
I1
I0
tbS'3990_ECG_REPORT'
tRp323
I1
sg2
(g3
(S'S16'
I0
I1
tRp324
(I3
S'|'
NNNI16
I1
I0
tbS'8087_ECHO_REPORT'
tRp325
I1
sg2
(g3
(S'S23'
I0
I1
tRp326
(I3
S'|'
NNNI23
I1
I0
tbS'14822_DISCHARGE_SUMMARY'
tRp327
I1
sg2
(g3
(S'S20'
I0
I1
tRp328
(I3
S'|'
NNNI20
I1
I0
tbS'587_RADIOLOGY_REPORT'
tRp329
I1
sg2
(g3
(S'S17'
I0
I1
tRp330
(I3
S'|'
NNNI17
I1
I0
tbS'15737_ECHO_REPORT'
tRp331
I1
sg2
(g3
(S'S17'
I0
I1
tRp332
(I3
S'|'
NNNI17
I1
I0
tbS'21967_ECHO_REPORT'
tRp333
I1
sg2
(g3
(S'S15'
I0
I1
tRp334
(I3
S'|'
NNNI15
I1
I0
tbS'5797_ECG_REPORT'
tRp335
I1
sg2
(g3
(S'S22'
I0
I1
tRp336
(I3
S'|'
NNNI22
I1
I0
tbS'7352_DISCHARGE_SUMMARY'
tRp337
I1
sg2
(g3
(S'S15'
I0
I1
tRp338
(I3
S'|'
NNNI15
I1
I0
tbS'6567_ECG_REPORT'
tRp339
I1
sg2
(g3
(S'S15'
I0
I1
tRp340
(I3
S'|'
NNNI15
I1
I0
tbS'9569_ECG_REPORT'
tRp341
I1
sg2
(g3
(S'S16'
I0
I1
tRp342
(I3
S'|'
NNNI16
I1
I0
tbS'74223_ECG_REPORT'
tRp343
I1
sg2
(g3
(S'S16'
I0
I1
tRp344
(I3
S'|'
NNNI16
I1
I0
tbS'15011_ECG_REPORT'
tRp345
I1
sg2
(g3
(S'S21'
I0
I1
tRp346
(I3
S'|'
NNNI21
I1
I0
tbS'7908_RADIOLOGY_REPORT'
tRp347
I1
sg2
(g3
(S'S17'
I0
I1
tRp348
(I3
S'|'
NNNI17
I1
I0
tbS'11801_ECHO_REPORT'
tRp349
I1
sg2
(g3
(S'S23'
I0
I1
tRp350
(I3
S'|'
NNNI23
I1
I0
tbS'11552_DISCHARGE_SUMMARY'
tRp351
I1
sg2
(g3
(S'S17'
I0
I1
tRp352
(I3
S'|'
NNNI17
I1
I0
tbS'12627_ECHO_REPORT'
tRp353
I1
sg2
(g3
(S'S23'
I0
I1
tRp354
(I3
S'|'
NNNI23
I1
I0
tbS'19138_DISCHARGE_SUMMARY'
tRp355
I1
sg2
(g3
(S'S22'
I0
I1
tRp356
(I3
S'|'
NNNI22
I1
I0
tbS'14108_RADIOLOGY_REPORT'
tRp357
I1
sg2
(g3
(S'S22'
I0
I1
tRp358
(I3
S'|'
NNNI22
I1
I0
tbS'25217_RADIOLOGY_REPORT'
tRp359
I1
sg2
(g3
(S'S22'
I0
I1
tRp360
(I3
S'|'
NNNI22
I1
I0
tbS'8114_DISCHARGE_SUMMARY'
tRp361
I1
sg2
(g3
(S'S22'
I0
I1
tRp362
(I3
S'|'
NNNI22
I1
I0
tbS'17097_RADIOLOGY_REPORT'
tRp363
I1
sg2
(g3
(S'S21'
I0
I1
tRp364
(I3
S'|'
NNNI21
I1
I0
tbS'1427_RADIOLOGY_REPORT'
tRp365
I1
sg2
(g3
(S'S23'
I0
I1
tRp366
(I3
S'|'
NNNI23
I1
I0
tbS'24435_DISCHARGE_SUMMARY'
tRp367
I1
sg2
(g3
(S'S15'
I0
I1
tRp368
(I3
S'|'
NNNI15
I1
I0
tbS'9030_ECG_REPORT'
tRp369
I1
sg2
(g3
(S'S23'
I0
I1
tRp370
(I3
S'|'
NNNI23
I1
I0
tbS'17774_DISCHARGE_SUMMARY'
tRp371
I1
sg2
(g3
(S'S16'
I0
I1
tRp372
(I3
S'|'
NNNI16
I1
I0
tbS'21219_ECG_REPORT'
tRp373
I1
sg2
(g3
(S'S23'
I0
I1
tRp374
(I3
S'|'
NNNI23
I1
I0
tbS'19596_DISCHARGE_SUMMARY'
tRp375
I1
sg2
(g3
(S'S23'
I0
I1
tRp376
(I3
S'|'
NNNI23
I1
I0
tbS'11392_DISCHARGE_SUMMARY'
tRp377
I1
sg2
(g3
(S'S15'
I0
I1
tRp378
(I3
S'|'
NNNI15
I1
I0
tbS'1982_ECG_REPORT'
tRp379
I1
sg2
(g3
(S'S15'
I0
I1
tRp380
(I3
S'|'
NNNI15
I1
I0
tbS'2405_ECG_REPORT'
tRp381
I1
sg2
(g3
(S'S17'
I0
I1
tRp382
(I3
S'|'
NNNI17
I1
I0
tbS'18673_ECHO_REPORT'
tRp383
I1
sg2
(g3
(S'S16'
I0
I1
tRp384
(I3
S'|'
NNNI16
I1
I0
tbS'24276_ECG_REPORT'
tRp385
I1
sg2
(g3
(S'S17'
I0
I1
tRp386
(I3
S'|'
NNNI17
I1
I0
tbS'20996_ECHO_REPORT'
tRp387
I1
sg2
(g3
(S'S22'
I0
I1
tRp388
(I3
S'|'
NNNI22
I1
I0
tbS'25950_RADIOLOGY_REPORT'
tRp389
I1
sg2
(g3
(S'S17'
I0
I1
tRp390
(I3
S'|'
NNNI17
I1
I0
tbS'25497_ECHO_REPORT'
tRp391
I1
sg2
(g3
(S'S15'
I0
I1
tRp392
(I3
S'|'
NNNI15
I1
I0
tbS'3066_ECG_REPORT'
tRp393
I1
sg2
(g3
(S'S17'
I0
I1
tRp394
(I3
S'|'
NNNI17
I1
I0
tbS'19512_ECHO_REPORT'
tRp395
I1
sg2
(g3
(S'S23'
I0
I1
tRp396
(I3
S'|'
NNNI23
I1
I0
tbS'17652_DISCHARGE_SUMMARY'
tRp397
I1
sg2
(g3
(S'S21'
I0
I1
tRp398
(I3
S'|'
NNNI21
I1
I0
tbS'1487_RADIOLOGY_REPORT'
tRp399
I1
sg2
(g3
(S'S15'
I0
I1
tRp400
(I3
S'|'
NNNI15
I1
I0
tbS'534_ECHO_REPORT'
tRp401
I1
sg2
(g3
(S'S16'
I0
I1
tRp402
(I3
S'|'
NNNI16
I1
I0
tbS'9375_ECHO_REPORT'
tRp403
I1
sg2
(g3
(S'S22'
I0
I1
tRp404
(I3
S'|'
NNNI22
I1
I0
tbS'23969_RADIOLOGY_REPORT'
tRp405
I1
sg2
(g3
(S'S16'
I0
I1
tRp406
(I3
S'|'
NNNI16
I1
I0
tbS'21971_ECG_REPORT'
tRp407
I1
sg2
(g3
(S'S23'
I0
I1
tRp408
(I3
S'|'
NNNI23
I1
I0
tbS'14888_DISCHARGE_SUMMARY'
tRp409
I1
sg2
(g3
(S'S23'
I0
I1
tRp410
(I3
S'|'
NNNI23
I1
I0
tbS'20288_DISCHARGE_SUMMARY'
tRp411
I1
sg2
(g3
(S'S23'
I0
I1
tRp412
(I3
S'|'
NNNI23
I1
I0
tbS'14897_DISCHARGE_SUMMARY'
tRp413
I1
sg2
(g3
(S'S16'
I0
I1
tRp414
(I3
S'|'
NNNI16
I1
I0
tbS'12050_ECG_REPORT'
tRp415
I1
sg2
(g3
(S'S23'
I0
I1
tRp416
(I3
S'|'
NNNI23
I1
I0
tbS'17644_DISCHARGE_SUMMARY'
tRp417
I1
sg2
(g3
(S'S16'
I0
I1
tRp418
(I3
S'|'
NNNI16
I1
I0
tbS'9531_ECHO_REPORT'
tRp419
I1
sg2
(g3
(S'S23'
I0
I1
tRp420
(I3
S'|'
NNNI23
I1
I0
tbS'16743_DISCHARGE_SUMMARY'
tRp421
I1
sg2
(g3
(S'S17'
I0
I1
tRp422
(I3
S'|'
NNNI17
I1
I0
tbS'10689_ECHO_REPORT'
tRp423
I1
sg2
(g3
(S'S16'
I0
I1
tRp424
(I3
S'|'
NNNI16
I1
I0
tbS'9665_ECHO_REPORT'
tRp425
I1
sg2
(g3
(S'S16'
I0
I1
tRp426
(I3
S'|'
NNNI16
I1
I0
tbS'19230_ECG_REPORT'
tRp427
I1
sg2
(g3
(S'S22'
I0
I1
tRp428
(I3
S'|'
NNNI22
I1
I0
tbS'7546_DISCHARGE_SUMMARY'
tRp429
I1
sg2
(g3
(S'S23'
I0
I1
tRp430
(I3
S'|'
NNNI23
I1
I0
tbS'13033_DISCHARGE_SUMMARY'
tRp431
I1
sg2
(g3
(S'S22'
I0
I1
tRp432
(I3
S'|'
NNNI22
I1
I0
tbS'26176_RADIOLOGY_REPORT'
tRp433
I1
sg2
(g3
(S'S23'
I0
I1
tRp434
(I3
S'|'
NNNI23
I1
I0
tbS'12125_DISCHARGE_SUMMARY'
tRp435
I1
sg2
(g3
(S'S23'
I0
I1
tRp436
(I3
S'|'
NNNI23
I1
I0
tbS'16994_DISCHARGE_SUMMARY'
tRp437
I1
sg2
(g3
(S'S22'
I0
I1
tRp438
(I3
S'|'
NNNI22
I1
I0
tbS'3628_DISCHARGE_SUMMARY'
tRp439
I1
sg2
(g3
(S'S23'
I0
I1
tRp440
(I3
S'|'
NNNI23
I1
I0
tbS'21305_DISCHARGE_SUMMARY'
tRp441
I1
sg2
(g3
(S'S17'
I0
I1
tRp442
(I3
S'|'
NNNI17
I1
I0
tbS'18529_ECHO_REPORT'
tRp443
I1
sg2
(g3
(S'S16'
I0
I1
tRp444
(I3
S'|'
NNNI16
I1
I0
tbS'9584_ECHO_REPORT'
tRp445
I1
sg2
(g3
(S'S17'
I0
I1
tRp446
(I3
S'|'
NNNI17
I1
I0
tbS'15770_ECHO_REPORT'
tRp447
I1
sg2
(g3
(S'S22'
I0
I1
tRp448
(I3
S'|'
NNNI22
I1
I0
tbS'10434_RADIOLOGY_REPORT'
tRp449
I1
sg2
(g3
(S'S17'
I0
I1
tRp450
(I3
S'|'
NNNI17
I1
I0
tbS'23389_ECHO_REPORT'
tRp451
I1
sg2
(g3
(S'S15'
I0
I1
tRp452
(I3
S'|'
NNNI15
I1
I0
tbS'1455_ECG_REPORT'
tRp453
I1
sg2
(g3
(S'S17'
I0
I1
tRp454
(I3
S'|'
NNNI17
I1
I0
tbS'13265_ECHO_REPORT'
tRp455
I1
sg2
(g3
(S'S17'
I0
I1
tRp456
(I3
S'|'
NNNI17
I1
I0
tbS'19267_ECHO_REPORT'
tRp457
I1
sg2
(g3
(S'S22'
I0
I1
tRp458
(I3
S'|'
NNNI22
I1
I0
tbS'21273_RADIOLOGY_REPORT'
tRp459
I1
sg2
(g3
(S'S22'
I0
I1
tRp460
(I3
S'|'
NNNI22
I1
I0
tbS'18076_RADIOLOGY_REPORT'
tRp461
I1
sg2
(g3
(S'S15'
I0
I1
tRp462
(I3
S'|'
NNNI15
I1
I0
tbS'2034_ECG_REPORT'
tRp463
I1
sg2
(g3
(S'S23'
I0
I1
tRp464
(I3
S'|'
NNNI23
I1
I0
tbS'14285_DISCHARGE_SUMMARY'
tRp465
I1
s.